Certificate:
    Data:
        Version: 3 (0x2)
        Serial Number:
            60:89:8c:03:e5:f7:d7:48:dc:13:5d:3a:0b:97:5d:de:ae:16:19:b6
        Signature Algorithm: sha256WithRSAEncryption
        Issuer: CN=osbuild.org
        Validity
            Not Before: Jan 12 10:25:28 2021 GMT
            Not After : Jan 10 10:25:28 2031 GMT
        Subject: emailAddress=osbuilders@redhat.com
        Subject Public Key Info:
            Public Key Algorithm: rsaEncryption
                RSA Public-Key: (2048 bit)
                Modulus:
                    00:f6:dd:c0:29:a5:44:98:52:46:36:e9:c2:10:32:
                    e6:f6:90:26:4d:fe:71:3c:6b:b5:33:ee:36:5a:ce:
                    9d:99:71:ba:2c:77:42:6a:c0:18:5a:ce:89:09:c1:
                    2d:67:70:ca:2e:47:b7:74:fa:a6:4f:f0:4b:61:51:
                    fa:18:6d:16:26:28:cb:3e:8d:26:c1:b9:ca:3a:4d:
                    16:41:f3:7e:f2:d4:f1:f4:2b:ae:de:9a:e0:f8:d2:
                    ac:f1:39:6d:fc:8c:64:6a:eb:83:26:7a:fe:7f:89:
                    49:b7:52:e3:1e:cd:c0:04:ff:58:4b:21:25:5e:07:
                    76:3c:d2:08:e3:fb:71:15:5e:91:67:a9:76:5f:37:
                    e0:69:a5:8d:a4:e7:8e:39:9f:ba:ec:37:62:b6:1e:
                    4a:0b:e6:33:2a:3f:36:a9:84:3a:04:56:85:56:64:
                    3a:42:3c:1c:df:a2:e6:fc:49:7b:42:a1:41:0d:94:
                    76:5b:78:b9:1e:70:99:0e:08:8b:31:1e:fe:34:ac:
                    4e:5a:22:cb:b7:88:22:78:e7:89:f0:e1:86:f2:17:
                    f8:6a:98:bc:e0:30:2c:83:1f:71:ca:22:d6:20:d1:
                    b6:f0:21:84:e6:36:01:a0:fe:d3:7b:dc:06:70:51:
                    38:90:80:0a:88:e5:f8:1c:71:09:9e:59:0b:70:af:
                    5a:b7
                Exponent: 65537 (0x10001)
        X509v3 extensions:
            X509v3 Basic Constraints: critical
                CA:FALSE
            X509v3 Subject Key Identifier: 
                64:AE:18:FE:DE:B1:D2:7D:E8:5E:DA:B9:33:B0:35:FA:6F:EF:A1:CF
            X509v3 Authority Key Identifier: 
                keyid:9E:DE:E9:7D:F2:D1:DA:25:AB:F2:5B:56:26:C8:8B:07:67:48:FF:BA
                DirName:/CN=osbuild.org
                serial:3F:73:F7:7F:7E:4F:15:13:6E:A1:FB:73:73:D2:FD:E8:38:53:A1:D0

            X509v3 Key Usage: critical
                Digital Signature, Key Encipherment
            X509v3 Extended Key Usage: 
                TLS Web Server Authentication
            X509v3 Subject Alternative Name: 
                DNS:composer.osbuild.org, DNS:stage.composer.osbuild.org, DNS:aws.composer.osbuild.org
    Signature Algorithm: sha256WithRSAEncryption
         a8:35:93:02:1c:ce:f1:09:b7:64:1e:71:30:fb:29:a1:f5:b5:
         cc:8b:f1:70:7e:e0:ea:fe:4b:19:29:d1:a5:d6:ba:08:de:94:
         ee:88:52:ba:fc:0f:89:02:5d:90:88:5f:bd:68:ea:e2:6c:72:
         d1:9c:0d:3b:3d:2a:b4:cd:5e:42:a9:c7:2a:9d:e4:2f:62:76:
         9c:f4:53:c4:a8:f1:2f:ee:31:05:ce:9e:11:85:07:c7:9e:f0:
         04:8d:c4:af:d4:16:d8:23:0d:e4:f1:28:76:83:14:66:c4:41:
         9c:fd:48:ac:38:da:48:eb:98:c6:d6:aa:22:63:5b:0f:93:b8:
         15:66:93:64:5e:17:9b:14:72:ca:82:57:42:f8:a6:b4:55:f6:
         ac:ab:69:53:99:2f:e0:a0:64:24:63:85:a2:51:4f:08:64:a5:
         d4:b3:a9:17:50:b2:9e:da:73:13:40:1e:7f:ad:4e:40:0b:ca:
         a7:30:02:7e:1d:2a:0e:27:b6:fa:72:3c:84:94:73:f9:6e:32:
         86:7c:1b:de:74:1e:c3:30:3b:f6:13:72:22:04:25:0c:9e:1b:
         7e:a1:c3:80:5c:fe:64:87:d8:52:55:45:c5:43:b1:65:45:69:
         fe:ff:4d:d4:43:73:18:fe:b2:2d:41:42:cc:d0:9b:52:e5:94:
         ca:79:83:00
-----BEGIN CERTIFICATE-----
MIIDyjCCArKgAwIBAgIUYImMA+X310jcE106C5dd3q4WGbYwDQYJKoZIhvcNAQEL
BQAwFjEUMBIGA1UEAwwLb3NidWlsZC5vcmcwHhcNMjEwMTEyMTAyNTI4WhcNMzEw
MTEwMTAyNTI4WjAmMSQwIgYJKoZIhvcNAQkBFhVvc2J1aWxkZXJzQHJlZGhhdC5j
b20wggEiMA0GCSqGSIb3DQEBAQUAA4IBDwAwggEKAoIBAQD23cAppUSYUkY26cIQ
Mub2kCZN/nE8a7Uz7jZazp2Zcbosd0JqwBhazokJwS1ncMouR7d0+qZP8EthUfoY
bRYmKMs+jSbBuco6TRZB837y1PH0K67emuD40qzxOW38jGRq64Mmev5/iUm3UuMe
zcAE/1hLISVeB3Y80gjj+3EVXpFnqXZfN+BppY2k5445n7rsN2K2HkoL5jMqPzap
hDoEVoVWZDpCPBzfoub8SXtCoUENlHZbeLkecJkOCIsxHv40rE5aIsu3iCJ454nw
4YbyF/hqmLzgMCyDH3HKItYg0bbwIYTmNgGg/tN73AZwUTiQgAqI5fgccQmeWQtw
r1q3AgMBAAGjgf8wgfwwDAYDVR0TAQH/BAIwADAdBgNVHQ4EFgQUZK4Y/t6x0n3o
Xtq5M7A1+m/voc8wUQYDVR0jBEowSIAUnt7pffLR2iWr8ltWJsiLB2dI/7qhGqQY
MBYxFDASBgNVBAMMC29zYnVpbGQub3JnghQ/c/d/fk8VE26h+3Nz0v3oOFOh0DAO
BgNVHQ8BAf8EBAMCBaAwEwYDVR0lBAwwCgYIKwYBBQUHAwEwVQYDVR0RBE4wTIIU
Y29tcG9zZXIub3NidWlsZC5vcmeCGnN0YWdlLmNvbXBvc2VyLm9zYnVpbGQub3Jn
ghhhd3MuY29tcG9zZXIub3NidWlsZC5vcmcwDQYJKoZIhvcNAQELBQADggEBAKg1
kwIczvEJt2QecTD7KaH1tcyL8XB+4Or+Sxkp0aXWugjelO6IUrr8D4kCXZCIX71o
6uJsctGcDTs9KrTNXkKpxyqd5C9idpz0U8So8S/uMQXOnhGFB8ee8ASNxK/UFtgj
DeTxKHaDFGbEQZz9SKw42kjrmMbWqiJjWw+TuBVmk2ReF5sUcsqCV0L4prRV9qyr
aVOZL+CgZCRjhaJRTwhkpdSzqRdQsp7acxNAHn+tTkALyqcwAn4dKg4ntvpyPISU
c/luMoZ8G950HsMwO/YTciIEJQyeG36hw4Bc/mSH2FJVRcVDsWVFaf7/TdRDcxj+
si1BQszQm1LllMp5gwA=
-----END CERTIFICATE-----
